; Function Attrs: mustprogress uwtable
define hidden void @_ZN15model_evaluatorclEP4exprR7obj_refIS0_11ast_managerE(ptr nocapture noundef nonnull readonly align 8 dereferenceable(8) %this, ptr noundef %t, ptr noundef nonnull align 8 dereferenceable(16) %result) local_unnamed_addr #3 align 2 {
entry:
  %0 = load ptr, ptr %this, align 8
  %m_pr.i = getelementptr inbounds i8, ptr %0, i64 496
  tail call void @_ZN12rewriter_tplIN3mev13evaluator_cfgEEclEP4exprR7obj_refIS3_11ast_managerERS5_I3appS6_E(ptr noundef nonnull align 8 dereferenceable(536) %0, ptr noundef %t, ptr noundef nonnull align 8 dereferenceable(16) %result, ptr noundef nonnull align 8 dereferenceable(16) %m_pr.i)
  %1 = load ptr, ptr %this, align 8
  %m_cfg.i = getelementptr inbounds i8, ptr %1, i64 536
  tail call void @_ZN3mev13evaluator_cfg13expand_storesER7obj_refI4expr11ast_managerE(ptr noundef nonnull align 8 dereferenceable(1800) %m_cfg.i, ptr noundef nonnull align 8 dereferenceable(16) %result)
  ret void
}